; Function Attrs: mustprogress uwtable
define hidden void @_ZN2cv3ccm9OperationclERNS_3MatE(ptr dead_on_unwind noalias writable sret(%"class.cv::Mat") align 8 %0, ptr noundef nonnull align 8 dereferenceable(144) %1, ptr noundef nonnull align 8 dereferenceable(96) %2) local_unnamed_addr #0 align 2 personality ptr @__gxx_personality_v0 {
  %4 = alloca %"class.cv::Mat", align 8
  %5 = getelementptr inbounds i8, ptr %1, i64 8
  %6 = load i8, ptr %5, align 8
  %7 = trunc i8 %6 to i1
  br i1 %7, label %18, label %8

8:                                                ; preds = %3
  call void @_ZN2cv3MatC1ERKS0_(ptr noundef nonnull align 8 dereferenceable(96) %4, ptr noundef nonnull align 8 dereferenceable(96) %2)
  %9 = getelementptr inbounds i8, ptr %1, i64 128
  %10 = load ptr, ptr %9, align 8, !noalias !4
  %.not.i.i = icmp eq ptr %10, null
  br i1 %.not.i.i, label %11, label %12

11:                                               ; preds = %8
  invoke void @_ZSt25__throw_bad_function_callv() #12
          to label %.noexc unwind label %16

.noexc:                                           ; preds = %11
  unreachable

12:                                               ; preds = %8
  %13 = getelementptr inbounds i8, ptr %1, i64 112
  %14 = getelementptr inbounds i8, ptr %1, i64 136
  %15 = load ptr, ptr %14, align 8, !noalias !4
  invoke void %15(ptr dead_on_unwind writable sret(%"class.cv::Mat") align 8 %0, ptr noundef nonnull align 8 dereferenceable(16) %13, ptr noundef nonnull align 8 dereferenceable(96) %4)
          to label %_ZNKSt8functionIFN2cv3MatES1_EEclES1_.exit unwind label %16

_ZNKSt8functionIFN2cv3MatES1_EEclES1_.exit:       ; preds = %12
  call void @_ZN2cv3MatD1Ev(ptr noundef nonnull align 8 dereferenceable(96) %4) #13
  br label %23

16:                                               ; preds = %12, %11
  %17 = landingpad { ptr, i32 }
          cleanup
  call void @_ZN2cv3MatD1Ev(ptr noundef nonnull align 8 dereferenceable(96) %4) #13
  resume { ptr, i32 } %17

18:                                               ; preds = %3
  %19 = getelementptr inbounds i8, ptr %1, i64 16
  %20 = tail call noundef zeroext i1 @_ZNK2cv3Mat5emptyEv(ptr noundef nonnull align 8 dereferenceable(96) %19)
  br i1 %20, label %21, label %22

21:                                               ; preds = %18
  tail call void @_ZN2cv3MatC1ERKS0_(ptr noundef nonnull align 8 dereferenceable(96) %0, ptr noundef nonnull align 8 dereferenceable(96) %2)
  br label %23

22:                                               ; preds = %18
  tail call void @_ZN2cv3ccm8multipleERKNS_3MatES3_(ptr dead_on_unwind writable sret(%"class.cv::Mat") align 8 %0, ptr noundef nonnull align 8 dereferenceable(96) %2, ptr noundef nonnull align 8 dereferenceable(96) %19)
  br label %23

23:                                               ; preds = %22, %21, %_ZNKSt8functionIFN2cv3MatES1_EEclES1_.exit
  ret void
}